target datalayout = "e-m:e-p270:32:32-p271:32:32-p272:64:64-i64:64-i128:128-f80:128-n8:16:32:64-S128"
target triple = "x86_64-pc-linux-gnu"

%struct._cmsAdaptationStateChunkType = type { double }

@.str.5 = private unnamed_addr constant [53 x i8] c"Wrong number of profiles. 1..255 expected, %d found.\00", align 1

; Function Attrs: nounwind uwtable
define hidden ptr @cmsCreateMultiprofileTransformTHR(ptr noundef %0, ptr noundef %1, i32 noundef %2, i32 noundef %3, i32 noundef %4, i32 noundef %5, i32 noundef %6) #0 {
  %8 = alloca ptr, align 8
  %9 = alloca ptr, align 8
  %10 = alloca ptr, align 8
  %11 = alloca i32, align 4
  %12 = alloca i32, align 4
  %13 = alloca i32, align 4
  %14 = alloca i32, align 4
  %15 = alloca i32, align 4
  %16 = alloca i32, align 4
  %17 = alloca [256 x i32], align 16
  %18 = alloca [256 x i32], align 16
  %19 = alloca [256 x double], align 16
  store ptr %0, ptr %9, align 8
  store ptr %1, ptr %10, align 8
  store i32 %2, ptr %11, align 4
  store i32 %3, ptr %12, align 4
  store i32 %4, ptr %13, align 4
  store i32 %5, ptr %14, align 4
  store i32 %6, ptr %15, align 4
  %20 = load i32, ptr %11, align 4
  %21 = icmp ule i32 %20, 0
  br i1 %21, label %25, label %22

22:                                               ; preds = %7
  %23 = load i32, ptr %11, align 4
  %24 = icmp ugt i32 %23, 255
  br i1 %24, label %25, label %28

25:                                               ; preds = %22, %7
  %26 = load ptr, ptr %9, align 8
  %27 = load i32, ptr %11, align 4
  call void (ptr, i32, ptr, ...) @cmsSignalError(ptr noundef %26, i32 noundef 2, ptr noundef @.str.5, i32 noundef %27)
  store ptr null, ptr %8, align 8
  br label %64

28:                                               ; preds = %22
  store i32 0, ptr %16, align 4
  br label %29

29:                                               ; preds = %50, %28
  %30 = load i32, ptr %16, align 4
  %31 = load i32, ptr %11, align 4
  %32 = icmp ult i32 %30, %31
  br i1 %32, label %33, label %53

33:                                               ; preds = %29
  %34 = load i32, ptr %15, align 4
  %35 = and i32 %34, 8192
  %36 = icmp ne i32 %35, 0
  %37 = select i1 %36, i32 1, i32 0
  %38 = load i32, ptr %16, align 4
  %39 = zext i32 %38 to i64
  %40 = getelementptr inbounds [256 x i32], ptr %17, i64 0, i64 %39
  store i32 %37, ptr %40, align 4
  %41 = load i32, ptr %14, align 4
  %42 = load i32, ptr %16, align 4
  %43 = zext i32 %42 to i64
  %44 = getelementptr inbounds [256 x i32], ptr %18, i64 0, i64 %43
  store i32 %41, ptr %44, align 4
  %45 = load ptr, ptr %9, align 8
  %46 = call double @cmsSetAdaptationStateTHR(ptr noundef %45, double noundef -1.000000e+00)
  %47 = load i32, ptr %16, align 4
  %48 = zext i32 %47 to i64
  %49 = getelementptr inbounds [256 x double], ptr %19, i64 0, i64 %48
  store double %46, ptr %49, align 8
  br label %50

50:                                               ; preds = %33
  %51 = load i32, ptr %16, align 4
  %52 = add i32 %51, 1
  store i32 %52, ptr %16, align 4
  br label %29, !llvm.loop !11

53:                                               ; preds = %29
  %54 = load ptr, ptr %9, align 8
  %55 = load i32, ptr %11, align 4
  %56 = load ptr, ptr %10, align 8
  %57 = getelementptr inbounds [256 x i32], ptr %17, i64 0, i64 0
  %58 = getelementptr inbounds [256 x i32], ptr %18, i64 0, i64 0
  %59 = getelementptr inbounds [256 x double], ptr %19, i64 0, i64 0
  %60 = load i32, ptr %12, align 4
  %61 = load i32, ptr %13, align 4
  %62 = load i32, ptr %15, align 4
  %63 = call ptr @cmsCreateExtendedTransform(ptr noundef %54, i32 noundef %55, ptr noundef %56, ptr noundef %57, ptr noundef %58, ptr noundef %59, ptr noundef null, i32 noundef 0, i32 noundef %60, i32 noundef %61, i32 noundef %62)
  store ptr %63, ptr %8, align 8
  br label %64

64:                                               ; preds = %53, %25
  %65 = load ptr, ptr %8, align 8
  ret ptr %65
}

; Function Attrs: nounwind uwtable
define hidden ptr @cmsCreateTransformTHR(ptr noundef %0, ptr noundef %1, i32 noundef %2, ptr noundef %3, i32 noundef %4, i32 noundef %5, i32 noundef %6) #0 {
  %8 = alloca ptr, align 8
  %9 = alloca ptr, align 8
  %10 = alloca i32, align 4
  %11 = alloca ptr, align 8
  %12 = alloca i32, align 4
  %13 = alloca i32, align 4
  %14 = alloca i32, align 4
  %15 = alloca [2 x ptr], align 16
  store ptr %0, ptr %8, align 8
  store ptr %1, ptr %9, align 8
  store i32 %2, ptr %10, align 4
  store ptr %3, ptr %11, align 8
  store i32 %4, ptr %12, align 4
  store i32 %5, ptr %13, align 4
  store i32 %6, ptr %14, align 4
  %16 = load ptr, ptr %9, align 8
  %17 = getelementptr inbounds [2 x ptr], ptr %15, i64 0, i64 0
  store ptr %16, ptr %17, align 16
  %18 = load ptr, ptr %11, align 8
  %19 = getelementptr inbounds [2 x ptr], ptr %15, i64 0, i64 1
  store ptr %18, ptr %19, align 8
  %20 = load ptr, ptr %8, align 8
  %21 = getelementptr inbounds [2 x ptr], ptr %15, i64 0, i64 0
  %22 = load ptr, ptr %11, align 8
  %23 = icmp eq ptr %22, null
  %24 = select i1 %23, i32 1, i32 2
  %25 = load i32, ptr %10, align 4
  %26 = load i32, ptr %12, align 4
  %27 = load i32, ptr %13, align 4
  %28 = load i32, ptr %14, align 4
  %29 = call ptr @cmsCreateMultiprofileTransformTHR(ptr noundef %20, ptr noundef %21, i32 noundef %24, i32 noundef %25, i32 noundef %26, i32 noundef %27, i32 noundef %28)
  ret ptr %29
}

; Function Attrs: nounwind uwtable
define hidden double @cmsSetAdaptationStateTHR(ptr noundef %0, double noundef %1) #0 {
  %3 = alloca ptr, align 8
  %4 = alloca double, align 8
  %5 = alloca double, align 8
  %6 = alloca ptr, align 8
  store ptr %0, ptr %3, align 8
  store double %1, ptr %4, align 8
  %7 = load ptr, ptr %3, align 8
  %8 = call ptr @_cmsContextGetClientChunk(ptr noundef %7, i32 noundef 3)
  store ptr %8, ptr %6, align 8
  %9 = load ptr, ptr %6, align 8
  %10 = getelementptr inbounds %struct._cmsAdaptationStateChunkType, ptr %9, i32 0, i32 0
  %11 = load double, ptr %10, align 8
  store double %11, ptr %5, align 8
  %12 = load double, ptr %4, align 8
  %13 = fcmp oge double %12, 0.000000e+00
  br i1 %13, label %14, label %18

14:                                               ; preds = %2
  %15 = load double, ptr %4, align 8
  %16 = load ptr, ptr %6, align 8
  %17 = getelementptr inbounds %struct._cmsAdaptationStateChunkType, ptr %16, i32 0, i32 0
  store double %15, ptr %17, align 8
  br label %18

18:                                               ; preds = %14, %2
  %19 = load double, ptr %5, align 8
  ret double %19
}

; Function Attrs: nounwind uwtable
define hidden ptr @cmsCreateProofingTransformTHR(ptr noundef %0, ptr noundef %1, i32 noundef %2, ptr noundef %3, i32 noundef %4, ptr noundef %5, i32 noundef %6, i32 noundef %7, i32 noundef %8) #0 {
  %10 = alloca ptr, align 8
  %11 = alloca ptr, align 8
  %12 = alloca ptr, align 8
  %13 = alloca i32, align 4
  %14 = alloca ptr, align 8
  %15 = alloca i32, align 4
  %16 = alloca ptr, align 8
  %17 = alloca i32, align 4
  %18 = alloca i32, align 4
  %19 = alloca i32, align 4
  %20 = alloca [4 x ptr], align 16
  %21 = alloca [4 x i32], align 16
  %22 = alloca [4 x i32], align 16
  %23 = alloca [4 x double], align 16
  %24 = alloca i32, align 4
  store ptr %0, ptr %11, align 8
  store ptr %1, ptr %12, align 8
  store i32 %2, ptr %13, align 4
  store ptr %3, ptr %14, align 8
  store i32 %4, ptr %15, align 4
  store ptr %5, ptr %16, align 8
  store i32 %6, ptr %17, align 4
  store i32 %7, ptr %18, align 4
  store i32 %8, ptr %19, align 4
  %25 = load i32, ptr %19, align 4
  %26 = and i32 %25, 8192
  %27 = icmp ne i32 %26, 0
  %28 = select i1 %27, i32 1, i32 0
  store i32 %28, ptr %24, align 4
  %29 = load ptr, ptr %12, align 8
  %30 = getelementptr inbounds [4 x ptr], ptr %20, i64 0, i64 0
  store ptr %29, ptr %30, align 16
  %31 = load ptr, ptr %16, align 8
  %32 = getelementptr inbounds [4 x ptr], ptr %20, i64 0, i64 1
  store ptr %31, ptr %32, align 8
  %33 = load ptr, ptr %16, align 8
  %34 = getelementptr inbounds [4 x ptr], ptr %20, i64 0, i64 2
  store ptr %33, ptr %34, align 16
  %35 = load ptr, ptr %14, align 8
  %36 = getelementptr inbounds [4 x ptr], ptr %20, i64 0, i64 3
  store ptr %35, ptr %36, align 8
  %37 = load i32, ptr %17, align 4
  %38 = getelementptr inbounds [4 x i32], ptr %21, i64 0, i64 0
  store i32 %37, ptr %38, align 16
  %39 = load i32, ptr %17, align 4
  %40 = getelementptr inbounds [4 x i32], ptr %21, i64 0, i64 1
  store i32 %39, ptr %40, align 4
  %41 = getelementptr inbounds [4 x i32], ptr %21, i64 0, i64 2
  store i32 1, ptr %41, align 8
  %42 = load i32, ptr %18, align 4
  %43 = getelementptr inbounds [4 x i32], ptr %21, i64 0, i64 3
  store i32 %42, ptr %43, align 4
  %44 = load i32, ptr %24, align 4
  %45 = getelementptr inbounds [4 x i32], ptr %22, i64 0, i64 0
  store i32 %44, ptr %45, align 16
  %46 = load i32, ptr %24, align 4
  %47 = getelementptr inbounds [4 x i32], ptr %22, i64 0, i64 1
  store i32 %46, ptr %47, align 4
  %48 = getelementptr inbounds [4 x i32], ptr %22, i64 0, i64 2
  store i32 0, ptr %48, align 8
  %49 = getelementptr inbounds [4 x i32], ptr %22, i64 0, i64 3
  store i32 0, ptr %49, align 4
  %50 = load ptr, ptr %11, align 8
  %51 = call double @cmsSetAdaptationStateTHR(ptr noundef %50, double noundef -1.000000e+00)
  %52 = getelementptr inbounds [4 x double], ptr %23, i64 0, i64 3
  store double %51, ptr %52, align 8
  %53 = getelementptr inbounds [4 x double], ptr %23, i64 0, i64 2
  store double %51, ptr %53, align 16
  %54 = getelementptr inbounds [4 x double], ptr %23, i64 0, i64 1
  store double %51, ptr %54, align 8
  %55 = getelementptr inbounds [4 x double], ptr %23, i64 0, i64 0
  store double %51, ptr %55, align 16
  %56 = load i32, ptr %19, align 4
  %57 = and i32 %56, 20480
  %58 = icmp ne i32 %57, 0
  br i1 %58, label %68, label %59

59:                                               ; preds = %9
  %60 = load ptr, ptr %11, align 8
  %61 = load ptr, ptr %12, align 8
  %62 = load i32, ptr %13, align 4
  %63 = load ptr, ptr %14, align 8
  %64 = load i32, ptr %15, align 4
  %65 = load i32, ptr %17, align 4
  %66 = load i32, ptr %19, align 4
  %67 = call ptr @cmsCreateTransformTHR(ptr noundef %60, ptr noundef %61, i32 noundef %62, ptr noundef %63, i32 noundef %64, i32 noundef %65, i32 noundef %66)
  store ptr %67, ptr %10, align 8
  br label %79

68:                                               ; preds = %9
  %69 = load ptr, ptr %11, align 8
  %70 = getelementptr inbounds [4 x ptr], ptr %20, i64 0, i64 0
  %71 = getelementptr inbounds [4 x i32], ptr %22, i64 0, i64 0
  %72 = getelementptr inbounds [4 x i32], ptr %21, i64 0, i64 0
  %73 = getelementptr inbounds [4 x double], ptr %23, i64 0, i64 0
  %74 = load ptr, ptr %16, align 8
  %75 = load i32, ptr %13, align 4
  %76 = load i32, ptr %15, align 4
  %77 = load i32, ptr %19, align 4
  %78 = call ptr @cmsCreateExtendedTransform(ptr noundef %69, i32 noundef 4, ptr noundef %70, ptr noundef %71, ptr noundef %72, ptr noundef %73, ptr noundef %74, i32 noundef 1, i32 noundef %75, i32 noundef %76, i32 noundef %77)
  store ptr %78, ptr %10, align 8
  br label %79

79:                                               ; preds = %68, %59
  %80 = load ptr, ptr %10, align 8
  ret ptr %80
}