; Function Attrs: nounwind uwtable
define hidden ptr @cmsCreateProofingTransformTHR(ptr noundef %0, ptr noundef %1, i32 noundef %2, ptr noundef %3, i32 noundef %4, ptr noundef %5, i32 noundef %6, i32 noundef %7, i32 noundef %8) local_unnamed_addr #0 {
  %10 = alloca [256 x i32], align 16
  %11 = alloca [256 x i32], align 16
  %12 = alloca [256 x double], align 16
  %13 = alloca [2 x ptr], align 16
  %14 = alloca [4 x ptr], align 16
  %15 = alloca [4 x i32], align 16
  %16 = alloca [4 x i32], align 16
  %17 = alloca [4 x double], align 16
  %18 = lshr i32 %8, 13
  %.lobit = and i32 %18, 1
  store ptr %1, ptr %14, align 16
  %19 = getelementptr inbounds i8, ptr %14, i64 8
  store ptr %5, ptr %19, align 8
  %20 = getelementptr inbounds i8, ptr %14, i64 16
  store ptr %5, ptr %20, align 16
  %21 = getelementptr inbounds i8, ptr %14, i64 24
  store ptr %3, ptr %21, align 8
  store i32 %6, ptr %15, align 16
  %22 = getelementptr inbounds i8, ptr %15, i64 4
  store i32 %6, ptr %22, align 4
  %23 = getelementptr inbounds i8, ptr %15, i64 8
  store i32 1, ptr %23, align 8
  %24 = getelementptr inbounds i8, ptr %15, i64 12
  store i32 %7, ptr %24, align 4
  store i32 %.lobit, ptr %16, align 16
  %25 = getelementptr inbounds i8, ptr %16, i64 4
  store i32 %.lobit, ptr %25, align 4
  %26 = getelementptr inbounds i8, ptr %16, i64 8
  store i32 0, ptr %26, align 8
  %27 = getelementptr inbounds i8, ptr %16, i64 12
  store i32 0, ptr %27, align 4
  %28 = tail call ptr @_cmsContextGetClientChunk(ptr noundef %0, i32 noundef 3) #11
  %29 = load double, ptr %28, align 8
  %30 = insertelement <4 x double> poison, double %29, i64 0
  %31 = shufflevector <4 x double> %30, <4 x double> poison, <4 x i32> zeroinitializer
  store <4 x double> %31, ptr %17, align 16
  %32 = and i32 %8, 20480
  %.not = icmp eq i32 %32, 0
  br i1 %.not, label %33, label %44

33:                                               ; preds = %9
  call void @llvm.lifetime.start.p0(i64 16, ptr nonnull %13)
  store ptr %1, ptr %13, align 16
  %34 = getelementptr inbounds i8, ptr %13, i64 8
  store ptr %3, ptr %34, align 8
  %35 = icmp eq ptr %3, null
  %36 = select i1 %35, i32 1, i32 2
  call void @llvm.lifetime.start.p0(i64 1024, ptr nonnull %10)
  call void @llvm.lifetime.start.p0(i64 1024, ptr nonnull %11)
  call void @llvm.lifetime.start.p0(i64 2048, ptr nonnull %12)
  %wide.trip.count.i.i = zext nneg i32 %36 to i64
  br label %37

37:                                               ; preds = %37, %33
  %indvars.iv.i.i = phi i64 [ 0, %33 ], [ %indvars.iv.next.i.i, %37 ]
  %38 = getelementptr inbounds [256 x i32], ptr %10, i64 0, i64 %indvars.iv.i.i
  store i32 %.lobit, ptr %38, align 4
  %39 = getelementptr inbounds [256 x i32], ptr %11, i64 0, i64 %indvars.iv.i.i
  store i32 %6, ptr %39, align 4
  %40 = tail call ptr @_cmsContextGetClientChunk(ptr noundef %0, i32 noundef 3) #11
  %41 = load double, ptr %40, align 8
  %42 = getelementptr inbounds [256 x double], ptr %12, i64 0, i64 %indvars.iv.i.i
  store double %41, ptr %42, align 8
  %indvars.iv.next.i.i = add nuw nsw i64 %indvars.iv.i.i, 1
  %exitcond.not.i.i = icmp eq i64 %indvars.iv.next.i.i, %wide.trip.count.i.i
  br i1 %exitcond.not.i.i, label %cmsCreateTransformTHR.exit, label %37, !llvm.loop !12

cmsCreateTransformTHR.exit:                       ; preds = %37
  %43 = call ptr @cmsCreateExtendedTransform(ptr noundef %0, i32 noundef %36, ptr noundef nonnull %13, ptr noundef nonnull %10, ptr noundef nonnull %11, ptr noundef nonnull %12, ptr noundef null, i32 noundef 0, i32 noundef %2, i32 noundef %4, i32 noundef %8)
  call void @llvm.lifetime.end.p0(i64 1024, ptr nonnull %10)
  call void @llvm.lifetime.end.p0(i64 1024, ptr nonnull %11)
  call void @llvm.lifetime.end.p0(i64 2048, ptr nonnull %12)
  call void @llvm.lifetime.end.p0(i64 16, ptr nonnull %13)
  br label %46

44:                                               ; preds = %9
  %45 = call ptr @cmsCreateExtendedTransform(ptr noundef %0, i32 noundef 4, ptr noundef nonnull %14, ptr noundef nonnull %16, ptr noundef nonnull %15, ptr noundef nonnull %17, ptr noundef %5, i32 noundef 1, i32 noundef %2, i32 noundef %4, i32 noundef %8)
  br label %46

46:                                               ; preds = %44, %cmsCreateTransformTHR.exit
  %.0 = phi ptr [ %45, %44 ], [ %43, %cmsCreateTransformTHR.exit ]
  ret ptr %.0
}